; Function Attrs: nounwind uwtable
define noundef i32 @H5G__node_free(ptr noundef %0) local_unnamed_addr #0 {
  %2 = load i8, ptr @H5G_init_g, align 1, !tbaa !3, !range !7, !noundef !8
  %3 = trunc nuw i8 %2 to i1
  %4 = load i8, ptr @H5_libterm_g, align 1, !range !7
  %5 = trunc nuw i8 %4 to i1
  %6 = xor i1 %5, true
  %7 = select i1 %3, i1 true, i1 %6
  br i1 %7, label %8, label %15, !prof !9

8:                                                ; preds = %1
  %9 = getelementptr inbounds nuw i8, ptr %0, i64 264
  %10 = load ptr, ptr %9, align 8, !tbaa !24
  %.not = icmp eq ptr %10, null
  br i1 %.not, label %13, label %11

11:                                               ; preds = %8
  %12 = tail call ptr @H5FL_seq_free(ptr noundef nonnull @H5_H5G_entry_t_seq_free_list, ptr noundef nonnull %10) #9
  store ptr %12, ptr %9, align 8, !tbaa !24
  br label %13

13:                                               ; preds = %11, %8
  %14 = tail call ptr @H5FL_reg_free(ptr noundef nonnull @H5_H5G_node_t_reg_free_list, ptr noundef nonnull %0) #9
  br label %15

15:                                               ; preds = %13, %1
  ret i32 0
}